libGeometry.so.0 libgeometry0 #MINVER#
 _ZN8Geometry10projectBoxERKNS_4_BoxIfEERKNS_10_Matrix4x4IfEES7_RKNS_5_RectIfEE@Base 0.2.0
 _ZN8Geometry12Intersection25isBoxIntersectingTriangleERKNS_4_BoxIfEERKNS_8TriangleINS_5_Vec3IfEEEE@Base 0.2.0
 _ZN8Geometry12Intersection5SlopeIdEC1ERKNS_4_RayINS_5_Vec3IdEEEE@Base 0.2.0
 _ZN8Geometry12Intersection5SlopeIdEC2ERKNS_4_RayINS_5_Vec3IdEEEE@Base 0.2.0
 _ZN8Geometry12Intersection5SlopeIfEC1ERKNS_4_RayINS_5_Vec3IfEEEE@Base 0.2.0
 _ZN8Geometry12Intersection5SlopeIfEC2ERKNS_4_RayINS_5_Vec3IfEEEE@Base 0.2.0
 _ZN8Geometry14BoundingSphere12computeEPOS6ERKSt6vectorINS_5_Vec3IfEESaIS3_EE@Base 0.2.0
 _ZN8Geometry14BoundingSphere13computeEPOS14ERKSt6vectorINS_5_Vec3IfEESaIS3_EE@Base 0.2.0
 _ZN8Geometry14BoundingSphere13computeEPOS26ERKSt6vectorINS_5_Vec3IfEESaIS3_EE@Base 0.2.0
 _ZN8Geometry14BoundingSphere13computeEPOS98ERKSt6vectorINS_5_Vec3IfEESaIS3_EE@Base 0.2.0
 _ZN8Geometry14BoundingSphere15computeMiniballERKSt6vectorINS_5_Vec3IfEESaIS3_EE@Base 0.2.0
 _ZN8Geometry14BoundingSphere18findExtremalPointsILm13EEENSt7__cxx114listINS_5_Vec3IdEESaIS5_EEERKSt6vectorINS4_IfEESaIS9_EE@Base 0.2.0
 _ZN8Geometry14BoundingSphere18findExtremalPointsILm3EEENSt7__cxx114listINS_5_Vec3IdEESaIS5_EEERKSt6vectorINS4_IfEESaIS9_EE@Base 0.2.0
 _ZN8Geometry14BoundingSphere18findExtremalPointsILm49EEENSt7__cxx114listINS_5_Vec3IdEESaIS5_EEERKSt6vectorINS4_IfEESaIS9_EE@Base 0.2.0
 _ZN8Geometry14BoundingSphere18findExtremalPointsILm7EEENSt7__cxx114listINS_5_Vec3IdEESaIS5_EEERKSt6vectorINS4_IfEESaIS9_EE@Base 0.2.0
 _ZN8Geometry23lineSphereIntersectionsERKNS_5_LineINS_5_Vec3IfEEEERKNS_7_SphereIfEE@Base 0.2.0
 _ZN8Geometry25calcEnclosingOrthoFrustumERKNS_4_BoxIfEERKNS_10_Matrix4x4IfEE@Base 0.2.0
 _ZN8Geometry27normLineSphereIntersectionsERKNS_5_LineINS_5_Vec3IfEEEERKNS_7_SphereIfEE@Base 0.2.0
 _ZN8Geometry6Helper10splitUpBoxERKNS_4_BoxIfEEjjj@Base 0.2.0
 _ZN8Geometry6Helper16getCornerIndicesENS_6side_tE@Base 0.2.0
 _ZN8Geometry6Helper16splitBoxCubeLikeERKNS_4_BoxIfEE@Base 0.2.0
 _ZN8Geometry6Helper17getTransformedBoxERKNS_4_BoxIfEERKNS_10_Matrix4x4IfEE@Base 0.2.0
 _ZN8Geometry6Helper9getNormalENS_6side_tE@Base 0.2.0
 _ZN8Geometry7Frustum10setFrustumEffffffb@Base 0.2.0
 _ZN8Geometry7Frustum11setPositionERKNS_5_Vec3IfEES4_S4_@Base 0.2.0
 _ZN8Geometry7Frustum14setPerspectiveERKNS_6_AngleIfEEfff@Base 0.2.0
 _ZN8Geometry7Frustum20setFrustumFromAnglesERKNS_6_AngleIfEES4_S4_S4_ff@Base 0.2.0
 _ZN8Geometry7Frustum27recalculateCornersAndPlanesEv@Base 0.2.0
 _ZN8Geometry7FrustumC1ERKNS_6_AngleIfEEfff@Base 0.2.0
 _ZN8Geometry7FrustumC1Ev@Base 0.2.0
 _ZN8Geometry7FrustumC2ERKNS_6_AngleIfEEfff@Base 0.2.0
 _ZN8Geometry7FrustumC2Ev@Base 0.2.0
 _ZNK8Geometry12Intersection5SlopeIdE20isRayIntersectingBoxERKNS_4_BoxIdEE@Base 0.2.0
 _ZNK8Geometry12Intersection5SlopeIdE21getRayBoxIntersectionERKNS_4_BoxIdEERd@Base 0.2.0
 _ZNK8Geometry12Intersection5SlopeIdE6getRayEv@Base 0.2.0
 _ZNK8Geometry12Intersection5SlopeIfE20isRayIntersectingBoxERKNS_4_BoxIfEE@Base 0.2.0
 _ZNK8Geometry12Intersection5SlopeIfE21getRayBoxIntersectionERKNS_4_BoxIfEERf@Base 0.2.0
 _ZNK8Geometry12Intersection5SlopeIfE6getRayEv@Base 0.2.0
 _ZNK8Geometry7Frustum14isBoxInFrustumERKNS_4_BoxIfEE@Base 0.2.0
 _ZNK8Geometry7FrustumeqERKS0_@Base 0.2.0
 _ZNKSt5ctypeIcE8do_widenEc@Base 0.2.0
 _ZNSt6vectorIN8Geometry14BoundingSphere22PrimitiveOperationDataIdEESaIS3_EE12emplace_backIIS3_EEEvDpOT_@Base 0.2.0
 _ZNSt6vectorIN8Geometry14BoundingSphere22PrimitiveOperationDataIdEESaIS3_EE12emplace_backIJS3_EEEvDpOT_@Base 0.2.0
 _ZNSt6vectorIN8Geometry14BoundingSphere22PrimitiveOperationDataIdEESaIS3_EE19_M_emplace_back_auxIIS3_EEEvDpOT_@Base 0.2.0
 _ZNSt6vectorIN8Geometry14BoundingSphere22PrimitiveOperationDataIdEESaIS3_EE19_M_emplace_back_auxIJS3_EEEvDpOT_@Base 0.2.0
 _ZNSt6vectorIN8Geometry4_BoxIfEESaIS2_EE19_M_emplace_back_auxIIRKS2_EEEvDpOT_@Base 0.2.0
 _ZNSt6vectorIN8Geometry4_BoxIfEESaIS2_EE19_M_emplace_back_auxIJRKS2_EEEvDpOT_@Base 0.2.0
 _ZNSt6vectorIN9__gnu_cxx17__normal_iteratorIPKN8Geometry5_Vec3IfEES_IS4_SaIS4_EEEESaIS9_EE12emplace_backIIRS9_EEEvDpOT_@Base 0.2.0
 _ZNSt6vectorIN9__gnu_cxx17__normal_iteratorIPKN8Geometry5_Vec3IfEES_IS4_SaIS4_EEEESaIS9_EE12emplace_backIJRS9_EEEvDpOT_@Base 0.2.0
 _ZNSt6vectorIN9__gnu_cxx17__normal_iteratorIPKN8Geometry5_Vec3IfEES_IS4_SaIS4_EEEESaIS9_EE19_M_emplace_back_auxIIRS9_EEEvDpOT_@Base 0.2.0
 _ZNSt6vectorIN9__gnu_cxx17__normal_iteratorIPKN8Geometry5_Vec3IfEES_IS4_SaIS4_EEEESaIS9_EE19_M_emplace_back_auxIJRS9_EEEvDpOT_@Base 0.2.0
 _ZNSt6vectorIN9__gnu_cxx17__normal_iteratorIPKN8Geometry5_Vec3IfEES_IS4_SaIS4_EEEESaIS9_EE7reserveEm@Base 0.2.0
 _ZSt13__adjust_heapIN9__gnu_cxx17__normal_iteratorIPNS1_IPKN8Geometry5_Vec3IfEESt6vectorIS4_SaIS4_EEEES7_ISA_SaISA_EEEElSA_NS0_5__ops15_Iter_less_iterEEvT_T0_SI_T1_T2_@Base 0.2.0
 _ZSt16__insertion_sortIN9__gnu_cxx17__normal_iteratorIPNS1_IPKN8Geometry5_Vec3IfEESt6vectorIS4_SaIS4_EEEES7_ISA_SaISA_EEEENS0_5__ops15_Iter_less_iterEEvT_SH_T0_@Base 0.2.0
 _ZSt8__uniqueIN9__gnu_cxx17__normal_iteratorIPNS1_IPKN8Geometry5_Vec3IfEESt6vectorIS4_SaIS4_EEEES7_ISA_SaISA_EEEENS0_5__ops19_Iter_equal_to_iterEET_SH_SH_T0_@Base 0.2.0
